target datalayout = "e-m:e-p270:32:32-p271:32:32-p272:64:64-i64:64-i128:128-f80:128-n8:16:32:64-S128"
target triple = "x86_64-pc-linux-gnu"

%struct.jit_State = type { %struct.GCtrace, ptr, ptr, ptr, ptr, ptr, ptr, i32, i32, i32, i8, i8, %struct.IRType1, i8, %struct.FoldState, ptr, i32, i32, i32, i32, i32, i32, i32, [1 x i32], [5 x %union.TValue], [3 x %union.TValue], ptr, i32, i32, i32, i32, ptr, ptr, i32, i32, i8, ptr, i32, i32, i16, [101 x i16], [258 x i32], [15 x i32], [16 x ptr], [64 x %struct.HotPenalty], i32, [16 x %struct.BPropEntry], i32, %struct.ScEvEntry, ptr, i32, i32, i32, ptr, i32, i32, ptr, ptr, ptr, i64, i64, %union.TValue, ptr, i32, i32 }
%struct.GCtrace = type { %struct.GCRef, i8, i8, i16, i32, i32, %struct.GCRef, ptr, i32, i32, ptr, ptr, %struct.GCRef, %struct.MRef, i32, i32, ptr, i32, i16, i16, i16, i16, i16, i16, i16, i8, i8, i8, i8 }
%struct.GCRef = type { i64 }
%struct.MRef = type { i64 }
%struct.IRType1 = type { i8 }
%struct.FoldState = type { %union.IRIns, [2 x %union.IRIns], [2 x %union.IRIns] }
%union.IRIns = type { %struct.GCRef }
%struct.HotPenalty = type { %struct.MRef, i16, i16 }
%struct.BPropEntry = type { i16, i16, i32 }
%struct.ScEvEntry = type { %struct.MRef, i16, i16, i16, i16, %struct.IRType1, i8 }
%union.TValue = type { i64 }
%struct.lua_State = type { %struct.GCRef, i8, i8, i8, i8, %struct.MRef, %struct.GCRef, ptr, ptr, %struct.MRef, %struct.MRef, %struct.GCRef, %struct.GCRef, ptr, i32 }

; Function Attrs: nounwind uwtable
define hidden void @lj_record_tailcall(ptr noundef %0, i32 noundef %1, i64 noundef %2) #0 {
  %4 = alloca ptr, align 8
  %5 = alloca i32, align 4
  %6 = alloca i64, align 8
  %7 = alloca i32, align 4
  store ptr %0, ptr %4, align 8, !tbaa !4
  store i32 %1, ptr %5, align 4, !tbaa !9
  store i64 %2, ptr %6, align 8, !tbaa !49
  %8 = load ptr, ptr %4, align 8, !tbaa !4
  %9 = load i32, ptr %5, align 4, !tbaa !9
  %10 = load i64, ptr %6, align 8, !tbaa !49
  call void @rec_call_setup(ptr noundef %8, i32 noundef %9, i64 noundef %10)
  %11 = load ptr, ptr %4, align 8, !tbaa !4
  %12 = getelementptr inbounds nuw %struct.jit_State, ptr %11, i32 0, i32 2
  %13 = load ptr, ptr %12, align 8, !tbaa !51
  %14 = getelementptr inbounds nuw %struct.lua_State, ptr %13, i32 0, i32 7
  %15 = load ptr, ptr %14, align 8, !tbaa !52
  %16 = getelementptr inbounds %union.TValue, ptr %15, i64 -1
  %17 = load i64, ptr %16, align 8, !tbaa !15
  %18 = and i64 %17, 7
  %19 = icmp eq i64 %18, 3
  br i1 %19, label %20, label %53

20:                                               ; preds = %3
  call void @llvm.lifetime.start.p0(i64 4, ptr %7) #9
  %21 = load ptr, ptr %4, align 8, !tbaa !4
  %22 = getelementptr inbounds nuw %struct.jit_State, ptr %21, i32 0, i32 2
  %23 = load ptr, ptr %22, align 8, !tbaa !51
  %24 = getelementptr inbounds nuw %struct.lua_State, ptr %23, i32 0, i32 7
  %25 = load ptr, ptr %24, align 8, !tbaa !52
  %26 = getelementptr inbounds %union.TValue, ptr %25, i64 -1
  %27 = load i64, ptr %26, align 8, !tbaa !15
  %28 = ashr i64 %27, 3
  %29 = trunc i64 %28 to i32
  store i32 %29, ptr %7, align 4, !tbaa !9
  %30 = load ptr, ptr %4, align 8, !tbaa !4
  %31 = getelementptr inbounds nuw %struct.jit_State, ptr %30, i32 0, i32 21
  %32 = load i32, ptr %31, align 4, !tbaa !37
  %33 = add nsw i32 %32, -1
  store i32 %33, ptr %31, align 4, !tbaa !37
  %34 = icmp slt i32 %33, 0
  br i1 %34, label %35, label %37

35:                                               ; preds = %20
  %36 = load ptr, ptr %4, align 8, !tbaa !4
  call void @lj_trace_err(ptr noundef %36, i32 noundef 16) #10
  unreachable

37:                                               ; preds = %20
  %38 = load i32, ptr %7, align 4, !tbaa !9
  %39 = load ptr, ptr %4, align 8, !tbaa !4
  %40 = getelementptr inbounds nuw %struct.jit_State, ptr %39, i32 0, i32 9
  %41 = load i32, ptr %40, align 8, !tbaa !43
  %42 = sub i32 %41, %38
  store i32 %42, ptr %40, align 8, !tbaa !43
  %43 = load i32, ptr %7, align 4, !tbaa !9
  %44 = load ptr, ptr %4, align 8, !tbaa !4
  %45 = getelementptr inbounds nuw %struct.jit_State, ptr %44, i32 0, i32 6
  %46 = load ptr, ptr %45, align 8, !tbaa !50
  %47 = zext i32 %43 to i64
  %48 = sub i64 0, %47
  %49 = getelementptr inbounds i32, ptr %46, i64 %48
  store ptr %49, ptr %45, align 8, !tbaa !50
  %50 = load i32, ptr %7, align 4, !tbaa !9
  %51 = load i32, ptr %5, align 4, !tbaa !9
  %52 = add i32 %51, %50
  store i32 %52, ptr %5, align 4, !tbaa !9
  call void @llvm.lifetime.end.p0(i64 4, ptr %7) #9
  br label %53

53:                                               ; preds = %37, %3
  %54 = load ptr, ptr %4, align 8, !tbaa !4
  %55 = getelementptr inbounds nuw %struct.jit_State, ptr %54, i32 0, i32 9
  %56 = load i32, ptr %55, align 8, !tbaa !43
  %57 = icmp eq i32 %56, 2
  br i1 %57, label %58, label %66

58:                                               ; preds = %53
  %59 = load ptr, ptr %4, align 8, !tbaa !4
  %60 = getelementptr inbounds nuw %struct.jit_State, ptr %59, i32 0, i32 6
  %61 = load ptr, ptr %60, align 8, !tbaa !50
  %62 = load i32, ptr %5, align 4, !tbaa !9
  %63 = add i32 %62, 1
  %64 = zext i32 %63 to i64
  %65 = getelementptr inbounds nuw i32, ptr %61, i64 %64
  store i32 65536, ptr %65, align 4, !tbaa !9
  br label %66

66:                                               ; preds = %58, %53
  %67 = load ptr, ptr %4, align 8, !tbaa !4
  %68 = getelementptr inbounds nuw %struct.jit_State, ptr %67, i32 0, i32 6
  %69 = load ptr, ptr %68, align 8, !tbaa !50
  %70 = getelementptr inbounds i32, ptr %69, i64 -2
  %71 = load ptr, ptr %4, align 8, !tbaa !4
  %72 = getelementptr inbounds nuw %struct.jit_State, ptr %71, i32 0, i32 6
  %73 = load ptr, ptr %72, align 8, !tbaa !50
  %74 = load i32, ptr %5, align 4, !tbaa !9
  %75 = zext i32 %74 to i64
  %76 = getelementptr inbounds nuw i32, ptr %73, i64 %75
  %77 = load ptr, ptr %4, align 8, !tbaa !4
  %78 = getelementptr inbounds nuw %struct.jit_State, ptr %77, i32 0, i32 8
  %79 = load i32, ptr %78, align 4, !tbaa !44
  %80 = add i32 %79, 1
  %81 = add i32 %80, 1
  %82 = zext i32 %81 to i64
  %83 = mul i64 4, %82
  call void @llvm.memmove.p0.p0.i64(ptr align 4 %70, ptr align 4 %76, i64 %83, i1 false)
  %84 = load ptr, ptr %4, align 8, !tbaa !4
  %85 = getelementptr inbounds nuw %struct.jit_State, ptr %84, i32 0, i32 20
  %86 = load i32, ptr %85, align 8, !tbaa !61
  %87 = add nsw i32 %86, 1
  store i32 %87, ptr %85, align 8, !tbaa !61
  %88 = load ptr, ptr %4, align 8, !tbaa !4
  %89 = getelementptr inbounds nuw %struct.jit_State, ptr %88, i32 0, i32 19
  %90 = load i32, ptr %89, align 4, !tbaa !62
  %91 = icmp sgt i32 %87, %90
  br i1 %91, label %92, label %94

92:                                               ; preds = %66
  %93 = load ptr, ptr %4, align 8, !tbaa !4
  call void @lj_trace_err(ptr noundef %93, i32 noundef 10) #10
  unreachable

94:                                               ; preds = %66
  ret void
}