; Function Attrs: nounwind uwtable
define hidden void @lj_record_tailcall(ptr noundef %0, i32 noundef %1, i64 noundef %2) local_unnamed_addr #0 {
  tail call fastcc void @rec_call_setup(ptr noundef %0, i32 noundef %1, i64 noundef %2)
  %4 = getelementptr inbounds nuw i8, ptr %0, i64 128
  %5 = load ptr, ptr %4, align 8, !tbaa !44
  %6 = getelementptr inbounds nuw i8, ptr %5, i64 32
  %7 = load ptr, ptr %6, align 8, !tbaa !45
  %8 = getelementptr inbounds i8, ptr %7, i64 -8
  %9 = load i64, ptr %8, align 8, !tbaa !4
  %10 = and i64 %9, 7
  %11 = icmp eq i64 %10, 3
  br i1 %11, label %12, label %._crit_edge

._crit_edge:                                      ; preds = %3
  %.phi.trans.insert = getelementptr inbounds nuw i8, ptr %0, i64 176
  %.pre = load i32, ptr %.phi.trans.insert, align 8, !tbaa !35
  br label %30

12:                                               ; preds = %3
  %13 = getelementptr inbounds nuw i8, ptr %0, i64 252
  %14 = load i32, ptr %13, align 4, !tbaa !31
  %15 = add nsw i32 %14, -1
  store i32 %15, ptr %13, align 4, !tbaa !31
  %16 = icmp slt i32 %14, 1
  br i1 %16, label %17, label %18

17:                                               ; preds = %12
  tail call void @lj_trace_err(ptr noundef nonnull %0, i32 noundef 16) #9
  unreachable

18:                                               ; preds = %12
  %19 = lshr i64 %9, 3
  %20 = trunc i64 %19 to i32
  %21 = getelementptr inbounds nuw i8, ptr %0, i64 176
  %22 = load i32, ptr %21, align 8, !tbaa !35
  %23 = sub i32 %22, %20
  store i32 %23, ptr %21, align 8, !tbaa !35
  %24 = getelementptr inbounds nuw i8, ptr %0, i64 160
  %25 = load ptr, ptr %24, align 8, !tbaa !43
  %26 = and i64 %19, 4294967295
  %27 = sub nsw i64 0, %26
  %28 = getelementptr inbounds i32, ptr %25, i64 %27
  store ptr %28, ptr %24, align 8, !tbaa !43
  %29 = add i32 %1, %20
  br label %30

30:                                               ; preds = %._crit_edge, %18
  %31 = phi i32 [ %23, %18 ], [ %.pre, %._crit_edge ]
  %.0 = phi i32 [ %29, %18 ], [ %1, %._crit_edge ]
  %32 = icmp eq i32 %31, 2
  %33 = getelementptr inbounds nuw i8, ptr %0, i64 160
  %34 = load ptr, ptr %33, align 8, !tbaa !43
  br i1 %32, label %35, label %._crit_edge22

35:                                               ; preds = %30
  %36 = add i32 %.0, 1
  %37 = zext i32 %36 to i64
  %38 = getelementptr inbounds nuw i32, ptr %34, i64 %37
  store i32 65536, ptr %38, align 4, !tbaa !37
  br label %._crit_edge22

._crit_edge22:                                    ; preds = %30, %35
  %39 = getelementptr inbounds i8, ptr %34, i64 -8
  %40 = zext i32 %.0 to i64
  %41 = getelementptr inbounds nuw i32, ptr %34, i64 %40
  %42 = getelementptr inbounds nuw i8, ptr %0, i64 172
  %43 = load i32, ptr %42, align 4, !tbaa !36
  %44 = add i32 %43, 2
  %45 = zext i32 %44 to i64
  %46 = shl nuw nsw i64 %45, 2
  tail call void @llvm.memmove.p0.p0.i64(ptr nonnull align 4 %39, ptr align 4 %41, i64 %46, i1 false)
  %47 = getelementptr inbounds nuw i8, ptr %0, i64 248
  %48 = load i32, ptr %47, align 8, !tbaa !56
  %49 = add nsw i32 %48, 1
  store i32 %49, ptr %47, align 8, !tbaa !56
  %50 = getelementptr inbounds nuw i8, ptr %0, i64 244
  %51 = load i32, ptr %50, align 4, !tbaa !57
  %.not = icmp slt i32 %48, %51
  br i1 %.not, label %53, label %52

52:                                               ; preds = %._crit_edge22
  tail call void @lj_trace_err(ptr noundef nonnull %0, i32 noundef 10) #9
  unreachable

53:                                               ; preds = %._crit_edge22
  ret void
}